target datalayout = "e-m:e-p270:32:32-p271:32:32-p272:64:64-i64:64-i128:128-f80:128-n8:16:32:64-S128"
target triple = "x86_64-unknown-linux-gnu"

%"struct.hermes::vm::JSBuiltin" = type { i16, i16 }
%"class.hermes::vm::HermesValue" = type { i64 }
%"class.hermes::vm::CallResult" = type { i32, %"class.hermes::vm::PseudoHandle" }
%"class.hermes::vm::PseudoHandle" = type { %"class.hermes::vm::HermesValue" }
%"class.hermes::vm::Handle" = type { %"class.hermes::vm::HandleBase" }
%"class.hermes::vm::HandleBase" = type { ptr }
%"class.hermes::vm::SymbolID" = type { i32 }
%"union.hermes::vm::PropOpFlags" = type { i32 }
%"class.hermes::vm::Handle.176" = type { %"class.hermes::vm::HandleBase" }
%"class.llvh::MutableArrayRef.255" = type { %"class.llvh::ArrayRef.256" }
%"class.llvh::ArrayRef.256" = type { ptr, i64 }

@_ZN6hermes2vmL10jsBuiltinsE = internal constant [1 x %"struct.hermes::vm::JSBuiltin"] [%"struct.hermes::vm::JSBuiltin" { i16 463, i16 52 }], align 2

; Function Attrs: mustprogress nounwind uwtable
define linkonce_odr hidden noundef ptr @_ZN4llvh16cast_convert_valIN6hermes2vm10JSFunctionEPNS2_6GCCellES5_E4doitERKS5_(ptr noundef nonnull align 8 dereferenceable(8) %Val) #0 comdat align 2 {
entry:
  %Val.addr = alloca ptr, align 8
  %Res2 = alloca ptr, align 8
  store ptr %Val, ptr %Val.addr, align 8
  %0 = load ptr, ptr %Val.addr, align 8
  %1 = load ptr, ptr %0, align 8
  store ptr %1, ptr %Res2, align 8
  %2 = load ptr, ptr %Res2, align 8
  ret ptr %2
}

; Function Attrs: mustprogress nounwind uwtable
define linkonce_odr hidden noundef ptr @_ZNK4llvh8ArrayRefIPN6hermes2vm8CallableEE4dataEv(ptr noundef nonnull align 8 dereferenceable(16) %this) #0 comdat align 2 {
entry:
  %this.addr = alloca ptr, align 8
  store ptr %this, ptr %this.addr, align 8
  %this1 = load ptr, ptr %this.addr, align 8
  %Data = getelementptr inbounds %"class.llvh::ArrayRef.256", ptr %this1, i32 0, i32 0
  %0 = load ptr, ptr %Data, align 8
  ret ptr %0
}

; Function Attrs: mustprogress nounwind uwtable
define linkonce_odr hidden noundef ptr @_ZN4llvh4castIN6hermes2vm10JSFunctionENS2_6GCCellEEENS_10cast_rettyIT_PT0_E8ret_typeES8_(ptr noundef %Val) #0 comdat {
entry:
  %Val.addr = alloca ptr, align 8
  store ptr %Val, ptr %Val.addr, align 8
  %call = call noundef ptr @_ZN4llvh16cast_convert_valIN6hermes2vm10JSFunctionEPNS2_6GCCellES5_E4doitERKS5_(ptr noundef nonnull align 8 dereferenceable(8) %Val.addr)
  ret ptr %call
}

; Function Attrs: mustprogress nounwind uwtable
define linkonce_odr hidden void @_ZN6hermes2vm8SymbolIDC2Ej(ptr noundef nonnull align 4 dereferenceable(4) %this, i32 noundef %id) unnamed_addr #0 comdat align 2 {
entry:
  %this.addr = alloca ptr, align 8
  %id.addr = alloca i32, align 4
  store ptr %this, ptr %this.addr, align 8
  store i32 %id, ptr %id.addr, align 4
  %this1 = load ptr, ptr %this.addr, align 8
  %id_ = getelementptr inbounds %"class.hermes::vm::SymbolID", ptr %this1, i32 0, i32 0
  %0 = load i32, ptr %id.addr, align 4
  store i32 %0, ptr %id_, align 4
  ret void
}

; Function Attrs: mustprogress nounwind uwtable
define linkonce_odr hidden noundef ptr @_ZNK4llvh15MutableArrayRefIPN6hermes2vm8CallableEE4dataEv(ptr noundef nonnull align 8 dereferenceable(16) %this) #0 comdat align 2 {
entry:
  %this.addr = alloca ptr, align 8
  store ptr %this, ptr %this.addr, align 8
  %this1 = load ptr, ptr %this.addr, align 8
  %call = call noundef ptr @_ZNK4llvh8ArrayRefIPN6hermes2vm8CallableEE4dataEv(ptr noundef nonnull align 8 dereferenceable(16) %this1)
  ret ptr %call
}

; Function Attrs: mustprogress nounwind uwtable
define linkonce_odr hidden noundef ptr @_ZN6hermes2vm6vmcastINS0_10JSFunctionEEEPT_PNS0_6GCCellE(ptr noundef %cell) #0 comdat {
entry:
  %cell.addr = alloca ptr, align 8
  store ptr %cell, ptr %cell.addr, align 8
  %0 = load ptr, ptr %cell.addr, align 8
  %call = call noundef ptr @_ZN4llvh4castIN6hermes2vm10JSFunctionENS2_6GCCellEEENS_10cast_rettyIT_PT0_E8ret_typeES8_(ptr noundef %0)
  ret ptr %call
}

; Function Attrs: mustprogress nounwind uwtable
define linkonce_odr hidden noundef ptr @_ZNK6hermes2vm11HermesValue10getPointerEv(ptr noundef nonnull align 8 dereferenceable(8) %this) #0 comdat align 2 {
entry:
  %this.addr = alloca ptr, align 8
  store ptr %this, ptr %this.addr, align 8
  %this1 = load ptr, ptr %this.addr, align 8
  %raw_ = getelementptr inbounds %"class.hermes::vm::HermesValue", ptr %this1, i32 0, i32 0
  %0 = load i64, ptr %raw_, align 8
  %and = and i64 %0, 281474976710655
  %1 = inttoptr i64 %and to ptr
  ret ptr %1
}

; Function Attrs: mustprogress nounwind uwtable
define linkonce_odr hidden i64 @_ZN6hermes2vm17HermesValueTraitsINS0_11HermesValueELb0EE6encodeES2_(i64 %value.coerce) #0 comdat align 2 {
entry:
  %retval = alloca %"class.hermes::vm::HermesValue", align 8
  %value = alloca %"class.hermes::vm::HermesValue", align 8
  %coerce.dive = getelementptr inbounds %"class.hermes::vm::HermesValue", ptr %value, i32 0, i32 0
  store i64 %value.coerce, ptr %coerce.dive, align 8
  call void @llvm.memcpy.p0.p0.i64(ptr align 8 %retval, ptr align 8 %value, i64 8, i1 false)
  %coerce.dive1 = getelementptr inbounds %"class.hermes::vm::HermesValue", ptr %retval, i32 0, i32 0
  %0 = load i64, ptr %coerce.dive1, align 8
  ret i64 %0
}

; Function Attrs: mustprogress nounwind uwtable
define linkonce_odr hidden noundef nonnull align 8 dereferenceable(8) ptr @_ZN6hermes2vm10CallResultINS0_12PseudoHandleINS0_11HermesValueEEELNS0_6detail20CallResultSpecializeE5EE8getValueEv(ptr noundef nonnull align 8 dereferenceable(16) %this) #0 comdat align 2 {
entry:
  %this.addr = alloca ptr, align 8
  store ptr %this, ptr %this.addr, align 8
  %this1 = load ptr, ptr %this.addr, align 8
  %storage_ = getelementptr inbounds %"class.hermes::vm::CallResult", ptr %this1, i32 0, i32 1
  ret ptr %storage_
}

; Function Attrs: mustprogress nounwind uwtable
define linkonce_odr hidden void @_ZN6hermes2vm6HandleINS0_11HermesValueEEC2INS0_8JSObjectEvEERKNS1_IT_EE(ptr noundef nonnull align 8 dereferenceable(8) %this, ptr noundef nonnull align 8 dereferenceable(8) %other) unnamed_addr #0 comdat align 2 {
entry:
  %this.addr = alloca ptr, align 8
  %other.addr = alloca ptr, align 8
  store ptr %this, ptr %this.addr, align 8
  store ptr %other, ptr %other.addr, align 8
  %this1 = load ptr, ptr %this.addr, align 8
  %0 = load ptr, ptr %other.addr, align 8
  call void @llvm.memcpy.p0.p0.i64(ptr align 8 %this1, ptr align 8 %0, i64 8, i1 false)
  ret void
}

; Function Attrs: mustprogress nounwind uwtable
define linkonce_odr hidden i32 @_ZN6hermes2vm8SymbolID12unsafeCreateEj(i32 noundef %id) #0 comdat align 2 {
entry:
  %retval = alloca %"class.hermes::vm::SymbolID", align 4
  %id.addr = alloca i32, align 4
  store i32 %id, ptr %id.addr, align 4
  %0 = load i32, ptr %id.addr, align 4
  call void @_ZN6hermes2vm8SymbolIDC2Ej(ptr noundef nonnull align 4 dereferenceable(4) %retval, i32 noundef %0)
  %coerce.dive = getelementptr inbounds %"class.hermes::vm::SymbolID", ptr %retval, i32 0, i32 0
  %1 = load i32, ptr %coerce.dive, align 4
  ret i32 %1
}

; Function Attrs: mustprogress nounwind uwtable
define linkonce_odr hidden noundef nonnull align 8 dereferenceable(8) ptr @_ZNK4llvh15MutableArrayRefIPN6hermes2vm8CallableEEixEm(ptr noundef nonnull align 8 dereferenceable(16) %this, i64 noundef %Index) #0 comdat align 2 {
entry:
  %this.addr = alloca ptr, align 8
  %Index.addr = alloca i64, align 8
  store ptr %this, ptr %this.addr, align 8
  store i64 %Index, ptr %Index.addr, align 8
  %this1 = load ptr, ptr %this.addr, align 8
  %call = call noundef ptr @_ZNK4llvh15MutableArrayRefIPN6hermes2vm8CallableEE4dataEv(ptr noundef nonnull align 8 dereferenceable(16) %this1)
  %0 = load i64, ptr %Index.addr, align 8
  %arrayidx = getelementptr inbounds ptr, ptr %call, i64 %0
  ret ptr %arrayidx
}

; Function Attrs: mustprogress nounwind uwtable
define linkonce_odr hidden noundef ptr @_ZN6hermes2vm6vmcastINS0_10JSFunctionEEEPT_NS0_11HermesValueE(i64 %val.coerce) #0 comdat {
entry:
  %val = alloca %"class.hermes::vm::HermesValue", align 8
  %coerce.dive = getelementptr inbounds %"class.hermes::vm::HermesValue", ptr %val, i32 0, i32 0
  store i64 %val.coerce, ptr %coerce.dive, align 8
  %call = call noundef ptr @_ZNK6hermes2vm11HermesValue10getPointerEv(ptr noundef nonnull align 8 dereferenceable(8) %val)
  %call1 = call noundef ptr @_ZN6hermes2vm6vmcastINS0_10JSFunctionEEEPT_PNS0_6GCCellE(ptr noundef %call)
  ret ptr %call1
}

; Function Attrs: mustprogress nounwind uwtable
define linkonce_odr hidden i64 @_ZNK6hermes2vm12PseudoHandleINS0_11HermesValueEE14getHermesValueEv(ptr noundef nonnull align 8 dereferenceable(8) %this) #0 comdat align 2 {
entry:
  %retval = alloca %"class.hermes::vm::HermesValue", align 8
  %this.addr = alloca ptr, align 8
  %agg.tmp = alloca %"class.hermes::vm::HermesValue", align 8
  store ptr %this, ptr %this.addr, align 8
  %this1 = load ptr, ptr %this.addr, align 8
  %value_ = getelementptr inbounds %"class.hermes::vm::PseudoHandle", ptr %this1, i32 0, i32 0
  call void @llvm.memcpy.p0.p0.i64(ptr align 8 %agg.tmp, ptr align 8 %value_, i64 8, i1 false)
  %coerce.dive = getelementptr inbounds %"class.hermes::vm::HermesValue", ptr %agg.tmp, i32 0, i32 0
  %0 = load i64, ptr %coerce.dive, align 8
  %call = call i64 @_ZN6hermes2vm17HermesValueTraitsINS0_11HermesValueELb0EE6encodeES2_(i64 %0)
  %coerce.dive2 = getelementptr inbounds %"class.hermes::vm::HermesValue", ptr %retval, i32 0, i32 0
  store i64 %call, ptr %coerce.dive2, align 8
  %coerce.dive3 = getelementptr inbounds %"class.hermes::vm::HermesValue", ptr %retval, i32 0, i32 0
  %1 = load i64, ptr %coerce.dive3, align 8
  ret i64 %1
}

; Function Attrs: mustprogress nounwind uwtable
define linkonce_odr hidden noundef ptr @_ZN6hermes2vm10CallResultINS0_12PseudoHandleINS0_11HermesValueEEELNS0_6detail20CallResultSpecializeE5EEptEv(ptr noundef nonnull align 8 dereferenceable(16) %this) #0 comdat align 2 {
entry:
  %this.addr = alloca ptr, align 8
  store ptr %this, ptr %this.addr, align 8
  %this1 = load ptr, ptr %this.addr, align 8
  %call = call noundef nonnull align 8 dereferenceable(8) ptr @_ZN6hermes2vm10CallResultINS0_12PseudoHandleINS0_11HermesValueEEELNS0_6detail20CallResultSpecializeE5EE8getValueEv(ptr noundef nonnull align 8 dereferenceable(16) %this1)
  ret ptr %call
}

; Function Attrs: mustprogress nounwind uwtable
define linkonce_odr hidden { i32, i64 } @_ZN6hermes2vm8JSObject12getNamed_RJSENS0_6HandleIS1_EERNS0_7RuntimeENS0_8SymbolIDENS0_11PropOpFlagsEPNS0_18PropertyCacheEntryE(ptr %selfHandle.coerce, ptr noundef nonnull align 8 dereferenceable(9832) %runtime, i32 %name.coerce, i32 %opFlags.coerce, ptr noundef %cacheEntry) #0 comdat align 2 {
entry:
  %retval = alloca %"class.hermes::vm::CallResult", align 8
  %selfHandle = alloca %"class.hermes::vm::Handle", align 8
  %name = alloca %"class.hermes::vm::SymbolID", align 4
  %opFlags = alloca %"union.hermes::vm::PropOpFlags", align 4
  %runtime.addr = alloca ptr, align 8
  %cacheEntry.addr = alloca ptr, align 8
  %agg.tmp = alloca %"class.hermes::vm::Handle", align 8
  %agg.tmp4 = alloca %"class.hermes::vm::SymbolID", align 4
  %agg.tmp5 = alloca %"class.hermes::vm::Handle.176", align 8
  %agg.tmp6 = alloca %"union.hermes::vm::PropOpFlags", align 4
  %coerce.dive = getelementptr inbounds %"class.hermes::vm::Handle", ptr %selfHandle, i32 0, i32 0
  %coerce.dive1 = getelementptr inbounds %"class.hermes::vm::HandleBase", ptr %coerce.dive, i32 0, i32 0
  store ptr %selfHandle.coerce, ptr %coerce.dive1, align 8
  %coerce.dive2 = getelementptr inbounds %"class.hermes::vm::SymbolID", ptr %name, i32 0, i32 0
  store i32 %name.coerce, ptr %coerce.dive2, align 4
  %coerce.dive3 = getelementptr inbounds %"union.hermes::vm::PropOpFlags", ptr %opFlags, i32 0, i32 0
  store i32 %opFlags.coerce, ptr %coerce.dive3, align 4
  store ptr %runtime, ptr %runtime.addr, align 8
  store ptr %cacheEntry, ptr %cacheEntry.addr, align 8
  call void @llvm.memcpy.p0.p0.i64(ptr align 8 %agg.tmp, ptr align 8 %selfHandle, i64 8, i1 false)
  %0 = load ptr, ptr %runtime.addr, align 8
  call void @llvm.memcpy.p0.p0.i64(ptr align 4 %agg.tmp4, ptr align 4 %name, i64 4, i1 false)
  call void @_ZN6hermes2vm6HandleINS0_11HermesValueEEC2INS0_8JSObjectEvEERKNS1_IT_EE(ptr noundef nonnull align 8 dereferenceable(8) %agg.tmp5, ptr noundef nonnull align 8 dereferenceable(8) %selfHandle)
  call void @llvm.memcpy.p0.p0.i64(ptr align 4 %agg.tmp6, ptr align 4 %opFlags, i64 4, i1 false)
  %1 = load ptr, ptr %cacheEntry.addr, align 8
  %coerce.dive7 = getelementptr inbounds %"class.hermes::vm::Handle", ptr %agg.tmp, i32 0, i32 0
  %coerce.dive8 = getelementptr inbounds %"class.hermes::vm::HandleBase", ptr %coerce.dive7, i32 0, i32 0
  %2 = load ptr, ptr %coerce.dive8, align 8
  %coerce.dive9 = getelementptr inbounds %"class.hermes::vm::SymbolID", ptr %agg.tmp4, i32 0, i32 0
  %3 = load i32, ptr %coerce.dive9, align 4
  %coerce.dive10 = getelementptr inbounds %"class.hermes::vm::Handle.176", ptr %agg.tmp5, i32 0, i32 0
  %coerce.dive11 = getelementptr inbounds %"class.hermes::vm::HandleBase", ptr %coerce.dive10, i32 0, i32 0
  %4 = load ptr, ptr %coerce.dive11, align 8
  %coerce.dive12 = getelementptr inbounds %"union.hermes::vm::PropOpFlags", ptr %agg.tmp6, i32 0, i32 0
  %5 = load i32, ptr %coerce.dive12, align 4
  %call = call { i32, i64 } @_ZN6hermes2vm8JSObject24getNamedWithReceiver_RJSENS0_6HandleIS1_EERNS0_7RuntimeENS0_8SymbolIDENS2_INS0_11HermesValueEEENS0_11PropOpFlagsEPNS0_18PropertyCacheEntryE(ptr %2, ptr noundef nonnull align 8 dereferenceable(9832) %0, i32 %3, ptr %4, i32 %5, ptr noundef %1)
  %6 = getelementptr inbounds { i32, i64 }, ptr %retval, i32 0, i32 0
  %7 = extractvalue { i32, i64 } %call, 0
  store i32 %7, ptr %6, align 8
  %8 = getelementptr inbounds { i32, i64 }, ptr %retval, i32 0, i32 1
  %9 = extractvalue { i32, i64 } %call, 1
  store i64 %9, ptr %8, align 8
  %10 = load { i32, i64 }, ptr %retval, align 8
  ret { i32, i64 } %10
}

; Function Attrs: mustprogress nounwind uwtable
define linkonce_odr hidden void @_ZN6hermes2vm11PropOpFlagsC2Ev(ptr noundef nonnull align 4 dereferenceable(4) %this) unnamed_addr #0 comdat align 2 {
entry:
  %this.addr = alloca ptr, align 8
  store ptr %this, ptr %this.addr, align 8
  %this1 = load ptr, ptr %this.addr, align 8
  store i32 0, ptr %this1, align 4
  ret void
}

; Function Attrs: mustprogress nounwind uwtable
define linkonce_odr hidden i32 @_ZN6hermes2vm10Predefined11getSymbolIDENS1_3StrE(i32 noundef %predefined) #0 comdat {
entry:
  %retval = alloca %"class.hermes::vm::SymbolID", align 4
  %predefined.addr = alloca i32, align 4
  store i32 %predefined, ptr %predefined.addr, align 4
  %0 = load i32, ptr %predefined.addr, align 4
  %call = call i32 @_ZN6hermes2vm8SymbolID12unsafeCreateEj(i32 noundef %0)
  %coerce.dive = getelementptr inbounds %"class.hermes::vm::SymbolID", ptr %retval, i32 0, i32 0
  store i32 %call, ptr %coerce.dive, align 4
  %coerce.dive1 = getelementptr inbounds %"class.hermes::vm::SymbolID", ptr %retval, i32 0, i32 0
  %1 = load i32, ptr %coerce.dive1, align 4
  ret i32 %1
}

; Function Attrs: mustprogress nounwind uwtable
define hidden void @_ZN6hermes2vm7Runtime14initJSBuiltinsEN4llvh15MutableArrayRefIPNS0_8CallableEEENS0_6HandleINS0_8JSObjectEEE(ptr noundef nonnull align 8 dereferenceable(9832) %this, ptr %builtins.coerce0, i64 %builtins.coerce1, ptr %jsBuiltinsObj.coerce) #0 align 2 {
entry:
  %builtins = alloca %"class.llvh::MutableArrayRef.255", align 8
  %jsBuiltinsObj = alloca %"class.hermes::vm::Handle", align 8
  %this.addr = alloca ptr, align 8
  %__range2 = alloca ptr, align 8
  %__begin2 = alloca ptr, align 8
  %__end2 = alloca ptr, align 8
  %jsBuiltin = alloca ptr, align 8
  %symID = alloca i16, align 2
  %builtinIndex = alloca i16, align 2
  %getRes = alloca %"class.hermes::vm::CallResult", align 8
  %agg.tmp = alloca %"class.hermes::vm::Handle", align 8
  %agg.tmp5 = alloca %"class.hermes::vm::SymbolID", align 4
  %agg.tmp7 = alloca %"union.hermes::vm::PropOpFlags", align 4
  %jsFunc = alloca ptr, align 8
  %agg.tmp13 = alloca %"class.hermes::vm::HermesValue", align 8
  %0 = getelementptr inbounds { ptr, i64 }, ptr %builtins, i32 0, i32 0
  store ptr %builtins.coerce0, ptr %0, align 8
  %1 = getelementptr inbounds { ptr, i64 }, ptr %builtins, i32 0, i32 1
  store i64 %builtins.coerce1, ptr %1, align 8
  %coerce.dive = getelementptr inbounds %"class.hermes::vm::Handle", ptr %jsBuiltinsObj, i32 0, i32 0
  %coerce.dive1 = getelementptr inbounds %"class.hermes::vm::HandleBase", ptr %coerce.dive, i32 0, i32 0
  store ptr %jsBuiltinsObj.coerce, ptr %coerce.dive1, align 8
  store ptr %this, ptr %this.addr, align 8
  %this2 = load ptr, ptr %this.addr, align 8
  store ptr @_ZN6hermes2vmL10jsBuiltinsE, ptr %__range2, align 8
  store ptr @_ZN6hermes2vmL10jsBuiltinsE, ptr %__begin2, align 8
  store ptr getelementptr inbounds (%"struct.hermes::vm::JSBuiltin", ptr @_ZN6hermes2vmL10jsBuiltinsE, i64 1), ptr %__end2, align 8
  br label %for.cond

for.cond:                                         ; preds = %for.inc, %entry
  %2 = load ptr, ptr %__begin2, align 8
  %3 = load ptr, ptr %__end2, align 8
  %cmp = icmp ne ptr %2, %3
  br i1 %cmp, label %for.body, label %for.end

for.body:                                         ; preds = %for.cond
  %4 = load ptr, ptr %__begin2, align 8
  store ptr %4, ptr %jsBuiltin, align 8
  %5 = load ptr, ptr %jsBuiltin, align 8
  %symID3 = getelementptr inbounds %"struct.hermes::vm::JSBuiltin", ptr %5, i32 0, i32 0
  %6 = load i16, ptr %symID3, align 2
  store i16 %6, ptr %symID, align 2
  %7 = load ptr, ptr %jsBuiltin, align 8
  %builtinIndex4 = getelementptr inbounds %"struct.hermes::vm::JSBuiltin", ptr %7, i32 0, i32 1
  %8 = load i16, ptr %builtinIndex4, align 2
  store i16 %8, ptr %builtinIndex, align 2
  call void @llvm.memcpy.p0.p0.i64(ptr align 8 %agg.tmp, ptr align 8 %jsBuiltinsObj, i64 8, i1 false)
  %9 = load i16, ptr %symID, align 2
  %conv = zext i16 %9 to i32
  %call = call i32 @_ZN6hermes2vm10Predefined11getSymbolIDENS1_3StrE(i32 noundef %conv)
  %coerce.dive6 = getelementptr inbounds %"class.hermes::vm::SymbolID", ptr %agg.tmp5, i32 0, i32 0
  store i32 %call, ptr %coerce.dive6, align 4
  call void @llvm.memset.p0.i64(ptr align 4 %agg.tmp7, i8 0, i64 4, i1 false)
  call void @_ZN6hermes2vm11PropOpFlagsC2Ev(ptr noundef nonnull align 4 dereferenceable(4) %agg.tmp7) #16
  %coerce.dive8 = getelementptr inbounds %"class.hermes::vm::Handle", ptr %agg.tmp, i32 0, i32 0
  %coerce.dive9 = getelementptr inbounds %"class.hermes::vm::HandleBase", ptr %coerce.dive8, i32 0, i32 0
  %10 = load ptr, ptr %coerce.dive9, align 8
  %coerce.dive10 = getelementptr inbounds %"class.hermes::vm::SymbolID", ptr %agg.tmp5, i32 0, i32 0
  %11 = load i32, ptr %coerce.dive10, align 4
  %coerce.dive11 = getelementptr inbounds %"union.hermes::vm::PropOpFlags", ptr %agg.tmp7, i32 0, i32 0
  %12 = load i32, ptr %coerce.dive11, align 4
  %call12 = call { i32, i64 } @_ZN6hermes2vm8JSObject12getNamed_RJSENS0_6HandleIS1_EERNS0_7RuntimeENS0_8SymbolIDENS0_11PropOpFlagsEPNS0_18PropertyCacheEntryE(ptr %10, ptr noundef nonnull align 8 dereferenceable(9832) %this2, i32 %11, i32 %12, ptr noundef null)
  %13 = getelementptr inbounds { i32, i64 }, ptr %getRes, i32 0, i32 0
  %14 = extractvalue { i32, i64 } %call12, 0
  store i32 %14, ptr %13, align 8
  %15 = getelementptr inbounds { i32, i64 }, ptr %getRes, i32 0, i32 1
  %16 = extractvalue { i32, i64 } %call12, 1
  store i64 %16, ptr %15, align 8
  %call14 = call noundef ptr @_ZN6hermes2vm10CallResultINS0_12PseudoHandleINS0_11HermesValueEEELNS0_6detail20CallResultSpecializeE5EEptEv(ptr noundef nonnull align 8 dereferenceable(16) %getRes)
  %call15 = call i64 @_ZNK6hermes2vm12PseudoHandleINS0_11HermesValueEE14getHermesValueEv(ptr noundef nonnull align 8 dereferenceable(8) %call14)
  %coerce.dive16 = getelementptr inbounds %"class.hermes::vm::HermesValue", ptr %agg.tmp13, i32 0, i32 0
  store i64 %call15, ptr %coerce.dive16, align 8
  %coerce.dive17 = getelementptr inbounds %"class.hermes::vm::HermesValue", ptr %agg.tmp13, i32 0, i32 0
  %17 = load i64, ptr %coerce.dive17, align 8
  %call18 = call noundef ptr @_ZN6hermes2vm6vmcastINS0_10JSFunctionEEEPT_NS0_11HermesValueE(i64 %17)
  store ptr %call18, ptr %jsFunc, align 8
  %18 = load ptr, ptr %jsFunc, align 8
  %19 = load i16, ptr %builtinIndex, align 2
  %conv19 = zext i16 %19 to i64
  %call20 = call noundef nonnull align 8 dereferenceable(8) ptr @_ZNK4llvh15MutableArrayRefIPN6hermes2vm8CallableEEixEm(ptr noundef nonnull align 8 dereferenceable(16) %builtins, i64 noundef %conv19)
  store ptr %18, ptr %call20, align 8
  br label %for.inc

for.inc:                                          ; preds = %for.body
  %20 = load ptr, ptr %__begin2, align 8
  %incdec.ptr = getelementptr inbounds %"struct.hermes::vm::JSBuiltin", ptr %20, i32 1
  store ptr %incdec.ptr, ptr %__begin2, align 8
  br label %for.cond

for.end:                                          ; preds = %for.cond
  ret void
}