; Function Attrs: mustprogress nounwind uwtable
define hidden void @_ZN6hermes2vm7Runtime14initJSBuiltinsEN4llvh15MutableArrayRefIPNS0_8CallableEEENS0_6HandleINS0_8JSObjectEEE(ptr noundef nonnull align 8 dereferenceable(9832) %this, ptr nocapture writeonly %builtins.coerce0, i64 %builtins.coerce1, ptr %jsBuiltinsObj.coerce) local_unnamed_addr #0 align 2 {
entry:
  %call.i = tail call { i32, i64 } @_ZN6hermes2vm8JSObject24getNamedWithReceiver_RJSENS0_6HandleIS1_EERNS0_7RuntimeENS0_8SymbolIDENS2_INS0_11HermesValueEEENS0_11PropOpFlagsEPNS0_18PropertyCacheEntryE(ptr %jsBuiltinsObj.coerce, ptr noundef nonnull align 8 dereferenceable(9832) %this, i32 463, ptr %jsBuiltinsObj.coerce, i32 0, ptr noundef null) #26
  %0 = extractvalue { i32, i64 } %call.i, 1
  %and.i.i = and i64 %0, 281474976710655
  %1 = inttoptr i64 %and.i.i to ptr
  %arrayidx.i = getelementptr inbounds i8, ptr %builtins.coerce0, i64 416
  store ptr %1, ptr %arrayidx.i, align 8
  ret void
}